Certificate:
    Data:
        Version: 3 (0x2)
        Serial Number: 2 (0x2)
        Signature Algorithm: sha256WithRSAEncryption
        Issuer: C=FR, ST=Radius, L=Somewhere, O=Example Inc./emailAddress=admin@example.org, CN=Example Certificate Authority
        Validity
            Not Before: Feb  1 14:47:10 2025 GMT
            Not After : Apr  2 14:47:10 2025 GMT
        Subject: C=FR, ST=Radius, O=Example Inc., CN=user@example.org/emailAddress=user@example.org
        Subject Public Key Info:
            Public Key Algorithm: rsaEncryption
                Public-Key: (2048 bit)
                Modulus:
                    00:d8:34:5f:bb:6b:ae:28:5c:26:c2:a0:d8:eb:d2:
                    af:5a:0c:15:a3:1e:54:ca:48:86:f5:91:8c:ef:bc:
                    e2:32:b5:3d:ca:62:bb:50:ad:dc:8c:21:2a:49:ae:
                    44:80:e0:ba:42:8a:d2:68:35:db:82:ff:54:73:54:
                    eb:49:ea:0f:14:6b:88:ac:08:e8:33:42:52:49:c2:
                    15:b1:2e:bb:25:dc:72:9a:a2:39:76:30:ae:94:63:
                    23:6a:7e:87:fe:f5:ec:4f:67:fe:ec:57:b3:6c:03:
                    67:2b:e5:7f:93:19:ee:af:6c:3e:22:66:41:91:d3:
                    de:f2:f6:e0:7b:87:86:e8:7f:22:3d:f9:d7:6f:21:
                    3f:4f:18:a3:e7:3f:42:8e:cc:9f:b3:0f:e4:1b:c1:
                    1c:a4:70:12:79:d3:8a:e4:5f:0d:49:9e:15:98:cc:
                    55:a2:84:2d:05:ff:7f:a8:d3:a0:e2:4d:bf:6c:65:
                    eb:de:59:86:a1:a4:10:34:e7:1f:6f:7a:7c:56:28:
                    ef:2d:5f:ca:5d:07:ac:41:01:b2:a1:77:47:40:4c:
                    8e:4a:2b:53:1f:39:82:b1:7a:99:22:82:32:92:89:
                    c1:79:ee:50:98:8a:75:a6:95:d0:7c:1d:d0:26:cc:
                    d3:af:56:18:09:63:bc:e4:c7:40:07:48:56:3b:b4:
                    b1:09
                Exponent: 65537 (0x10001)
        X509v3 extensions:
            X509v3 Extended Key Usage: 
                TLS Web Client Authentication
            X509v3 CRL Distribution Points: 
                Full Name:
                  URI:http://www.example.com/example_ca.crl
            X509v3 Subject Key Identifier: 
                3F:30:A0:EC:6B:F4:77:39:61:B5:9A:F7:7A:51:07:E6:97:DB:98:3F
            X509v3 Authority Key Identifier: 
                26:07:BE:2F:7B:94:E4:48:1C:62:31:15:39:F4:18:7C:6A:D6:83:3A
    Signature Algorithm: sha256WithRSAEncryption
    Signature Value:
        6e:19:78:84:e0:ac:9d:7d:bc:f3:43:e9:33:c4:2d:0d:cc:db:
        0a:d1:0f:e2:80:d3:88:4a:60:4e:bd:65:70:cd:2a:07:05:df:
        39:57:02:9a:b8:80:26:7f:ac:53:d5:32:7b:d3:b6:9e:05:4a:
        0b:11:11:83:5b:ad:9a:83:22:d3:f9:97:10:2f:b3:cd:cf:b9:
        c7:61:be:3c:f9:7c:1c:d7:65:eb:47:10:7e:00:4b:e8:df:09:
        ea:88:fb:f5:c9:68:d1:89:be:14:6c:f4:45:48:41:93:13:85:
        4a:39:bd:50:7e:a1:64:e7:d9:f1:62:84:3f:87:7d:0a:ae:29:
        22:cd:a3:5f:9a:f0:7b:f5:c8:b4:3d:0c:43:9c:5e:c1:84:77:
        24:40:e8:bb:58:fe:e8:d8:9a:cd:05:23:da:5d:ad:e5:eb:ae:
        7d:85:06:cd:3e:4c:03:ab:65:1f:d4:f9:9d:bb:9b:03:61:42:
        23:33:61:3d:c7:94:6e:2a:77:7e:6e:b0:96:c0:c7:b1:16:f0:
        09:67:76:2e:cf:5f:9d:10:2a:1d:db:2b:b6:f7:2d:7e:c0:d5:
        39:d0:82:99:df:e9:9f:d8:c3:90:08:01:cd:a0:36:56:22:5a:
        8c:65:f2:9d:63:58:5a:e9:da:20:bc:11:7e:c9:6e:05:3b:a4:
        6b:69:4e:58
-----BEGIN CERTIFICATE-----
MIIEETCCAvmgAwIBAgIBAjANBgkqhkiG9w0BAQsFADCBkzELMAkGA1UEBhMCRlIx
DzANBgNVBAgMBlJhZGl1czESMBAGA1UEBwwJU29tZXdoZXJlMRUwEwYDVQQKDAxF
eGFtcGxlIEluYy4xIDAeBgkqhkiG9w0BCQEWEWFkbWluQGV4YW1wbGUub3JnMSYw
JAYDVQQDDB1FeGFtcGxlIENlcnRpZmljYXRlIEF1dGhvcml0eTAeFw0yNTAyMDEx
NDQ3MTBaFw0yNTA0MDIxNDQ3MTBaMHExCzAJBgNVBAYTAkZSMQ8wDQYDVQQIDAZS
YWRpdXMxFTATBgNVBAoMDEV4YW1wbGUgSW5jLjEZMBcGA1UEAwwQdXNlckBleGFt
cGxlLm9yZzEfMB0GCSqGSIb3DQEJARYQdXNlckBleGFtcGxlLm9yZzCCASIwDQYJ
KoZIhvcNAQEBBQADggEPADCCAQoCggEBANg0X7trrihcJsKg2OvSr1oMFaMeVMpI
hvWRjO+84jK1Pcpiu1Ct3IwhKkmuRIDgukKK0mg124L/VHNU60nqDxRriKwI6DNC
UknCFbEuuyXccpqiOXYwrpRjI2p+h/717E9n/uxXs2wDZyvlf5MZ7q9sPiJmQZHT
3vL24HuHhuh/Ij35128hP08Yo+c/Qo7Mn7MP5BvBHKRwEnnTiuRfDUmeFZjMVaKE
LQX/f6jToOJNv2xl695ZhqGkEDTnH296fFYo7y1fyl0HrEEBsqF3R0BMjkorUx85
grF6mSKCMpKJwXnuUJiKdaaV0Hwd0CbM069WGAljvOTHQAdIVju0sQkCAwEAAaOB
kDCBjTATBgNVHSUEDDAKBggrBgEFBQcDAjA2BgNVHR8ELzAtMCugKaAnhiVodHRw
Oi8vd3d3LmV4YW1wbGUuY29tL2V4YW1wbGVfY2EuY3JsMB0GA1UdDgQWBBQ/MKDs
a/R3OWG1mvd6UQfml9uYPzAfBgNVHSMEGDAWgBQmB74ve5TkSBxiMRU59Bh8ataD
OjANBgkqhkiG9w0BAQsFAAOCAQEAbhl4hOCsnX2880PpM8QtDczbCtEP4oDTiEpg
Tr1lcM0qBwXfOVcCmriAJn+sU9Uye9O2ngVKCxERg1utmoMi0/mXEC+zzc+5x2G+
PPl8HNdl60cQfgBL6N8J6oj79clo0Ym+FGz0RUhBkxOFSjm9UH6hZOfZ8WKEP4d9
Cq4pIs2jX5rwe/XItD0MQ5xewYR3JEDou1j+6NiazQUj2l2t5euufYUGzT5MA6tl
H9T5nbubA2FCIzNhPceUbip3fm6wlsDHsRbwCWd2Ls9fnRAqHdsrtvctfsDVOdCC
md/pn9jDkAgBzaA2ViJajGXynWNYWunaILwRfsluBTuka2lOWA==
-----END CERTIFICATE-----
