Certificate:
    Data:
        Version: 3 (0x2)
        Serial Number: 1 (0x1)
        Signature Algorithm: sha256WithRSAEncryption
        Issuer: C=FR, ST=Radius, L=Somewhere, O=Example Inc./emailAddress=admin@example.org, CN=Example Certificate Authority
        Validity
            Not Before: Feb  1 14:47:10 2025 GMT
            Not After : Apr  2 14:47:10 2025 GMT
        Subject: C=FR, ST=Radius, O=Example Inc., CN=Example Server Certificate/emailAddress=admin@example.org
        Subject Public Key Info:
            Public Key Algorithm: rsaEncryption
                Public-Key: (2048 bit)
                Modulus:
                    00:b3:06:f7:aa:d4:42:1e:b1:2a:56:af:b6:ca:4c:
                    cb:dc:fb:24:d6:5b:d2:56:a2:53:aa:5d:14:56:cf:
                    b0:94:52:d7:9d:52:ac:74:80:cb:55:85:d4:15:ed:
                    a4:48:8f:cc:c0:f1:a4:1b:dd:61:cc:b1:fe:a3:81:
                    62:39:d7:dc:23:ac:52:ed:b1:c2:de:98:1a:61:e1:
                    b6:26:32:67:5c:9e:22:d8:c9:10:5b:25:bd:a5:5b:
                    c6:5b:19:73:a1:57:bd:d0:5c:ea:ba:ef:07:96:7c:
                    04:4e:52:db:ca:4b:87:18:17:98:48:ab:7a:05:9b:
                    81:34:7c:fc:a9:ea:00:24:ae:bb:20:c3:6b:88:52:
                    cb:b5:05:3c:92:a6:d1:26:ba:cc:be:49:de:ec:ad:
                    88:4e:40:5b:77:c9:26:94:7b:3a:fc:72:17:e6:cf:
                    2a:d1:ba:e7:5e:68:52:39:76:c9:42:8a:d9:da:f5:
                    8f:5e:d7:3a:fa:72:4d:df:49:f8:61:a8:80:26:73:
                    eb:4d:69:ef:b0:91:17:25:49:50:d8:b6:cd:16:b5:
                    eb:26:83:a9:32:36:6e:db:ad:73:fd:a3:4f:7a:c6:
                    60:86:15:42:7b:48:96:a3:a1:aa:ec:a2:a3:17:00:
                    ab:d7:6b:89:81:14:29:f6:8a:53:e4:f9:df:05:34:
                    d4:c9
                Exponent: 65537 (0x10001)
        X509v3 extensions:
            X509v3 Extended Key Usage: 
                TLS Web Server Authentication
            X509v3 CRL Distribution Points: 
                Full Name:
                  URI:http://www.example.com/example_ca.crl
            X509v3 Certificate Policies: 
                Policy: 1.3.6.1.4.1.40808.1.3.2
            X509v3 Subject Key Identifier: 
                25:8E:E2:47:1C:55:65:44:30:C6:93:61:1D:FA:A2:3F:57:39:28:5F
            X509v3 Authority Key Identifier: 
                26:07:BE:2F:7B:94:E4:48:1C:62:31:15:39:F4:18:7C:6A:D6:83:3A
    Signature Algorithm: sha256WithRSAEncryption
    Signature Value:
        3c:4f:42:60:98:3b:bf:dd:03:4f:14:07:d5:c6:84:0b:7a:d7:
        d6:b5:4f:7e:19:b7:2f:d3:7e:d4:0a:7d:81:9d:76:01:38:4e:
        df:d3:dd:43:85:ea:a4:16:0e:b4:b0:d9:f5:09:93:51:9a:36:
        8c:e2:fb:cb:85:33:ad:11:22:96:88:bb:5e:88:b5:94:3a:cf:
        4d:fd:74:87:41:c6:6a:ea:52:33:75:27:98:7d:1e:73:81:e8:
        ab:a6:6c:f0:59:37:40:7f:2d:6a:2c:89:b2:45:0d:41:3e:06:
        78:03:14:5b:26:9c:13:17:3b:1b:c0:d0:2c:85:10:88:08:e7:
        f4:34:e5:c2:e4:fc:90:e3:66:24:2f:29:d0:3c:5c:ca:a1:89:
        64:aa:cb:30:33:1c:98:9e:fe:41:92:e1:6b:c0:fc:6a:a3:35:
        b5:17:5d:99:70:07:93:93:58:35:db:47:67:bf:0a:be:46:72:
        b8:f7:fb:9c:91:67:2e:03:22:98:17:21:2f:8c:aa:6d:e2:86:
        bc:92:f8:8a:a1:dc:3b:14:0f:86:79:1f:c6:f7:2d:97:3a:0f:
        4a:c8:dd:5e:69:ff:92:f5:34:40:56:47:a5:73:fb:46:75:11:
        0a:29:31:0e:f1:d1:bd:2b:d4:62:35:13:ad:6e:1d:96:28:9c:
        d6:ca:84:0d
-----BEGIN CERTIFICATE-----
MIIENjCCAx6gAwIBAgIBATANBgkqhkiG9w0BAQsFADCBkzELMAkGA1UEBhMCRlIx
DzANBgNVBAgMBlJhZGl1czESMBAGA1UEBwwJU29tZXdoZXJlMRUwEwYDVQQKDAxF
eGFtcGxlIEluYy4xIDAeBgkqhkiG9w0BCQEWEWFkbWluQGV4YW1wbGUub3JnMSYw
JAYDVQQDDB1FeGFtcGxlIENlcnRpZmljYXRlIEF1dGhvcml0eTAeFw0yNTAyMDEx
NDQ3MTBaFw0yNTA0MDIxNDQ3MTBaMHwxCzAJBgNVBAYTAkZSMQ8wDQYDVQQIDAZS
YWRpdXMxFTATBgNVBAoMDEV4YW1wbGUgSW5jLjEjMCEGA1UEAwwaRXhhbXBsZSBT
ZXJ2ZXIgQ2VydGlmaWNhdGUxIDAeBgkqhkiG9w0BCQEWEWFkbWluQGV4YW1wbGUu
b3JnMIIBIjANBgkqhkiG9w0BAQEFAAOCAQ8AMIIBCgKCAQEAswb3qtRCHrEqVq+2
ykzL3Psk1lvSVqJTql0UVs+wlFLXnVKsdIDLVYXUFe2kSI/MwPGkG91hzLH+o4Fi
OdfcI6xS7bHC3pgaYeG2JjJnXJ4i2MkQWyW9pVvGWxlzoVe90Fzquu8HlnwETlLb
ykuHGBeYSKt6BZuBNHz8qeoAJK67IMNriFLLtQU8kqbRJrrMvkne7K2ITkBbd8km
lHs6/HIX5s8q0brnXmhSOXbJQorZ2vWPXtc6+nJN30n4YaiAJnPrTWnvsJEXJUlQ
2LbNFrXrJoOpMjZu261z/aNPesZghhVCe0iWo6Gq7KKjFwCr12uJgRQp9opT5Pnf
BTTUyQIDAQABo4GqMIGnMBMGA1UdJQQMMAoGCCsGAQUFBwMBMDYGA1UdHwQvMC0w
K6ApoCeGJWh0dHA6Ly93d3cuZXhhbXBsZS5jb20vZXhhbXBsZV9jYS5jcmwwGAYD
VR0gBBEwDzANBgsrBgEEAYK+aAEDAjAdBgNVHQ4EFgQUJY7iRxxVZUQwxpNhHfqi
P1c5KF8wHwYDVR0jBBgwFoAUJge+L3uU5EgcYjEVOfQYfGrWgzowDQYJKoZIhvcN
AQELBQADggEBADxPQmCYO7/dA08UB9XGhAt619a1T34Zty/TftQKfYGddgE4Tt/T
3UOF6qQWDrSw2fUJk1GaNozi+8uFM60RIpaIu16ItZQ6z039dIdBxmrqUjN1J5h9
HnOB6KumbPBZN0B/LWosibJFDUE+BngDFFsmnBMXOxvA0CyFEIgI5/Q05cLk/JDj
ZiQvKdA8XMqhiWSqyzAzHJie/kGS4WvA/GqjNbUXXZlwB5OTWDXbR2e/Cr5Gcrj3
+5yRZy4DIpgXIS+Mqm3ihryS+Iqh3DsUD4Z5H8b3LZc6D0rI3V5p/5L1NEBWR6Vz
+0Z1EQopMQ7x0b0r1GI1E61uHZYonNbKhA0=
-----END CERTIFICATE-----
